target datalayout = "e-m:e-p270:32:32-p271:32:32-p272:64:64-i64:64-i128:128-f80:128-n8:16:32:64-S128"
target triple = "x86_64-pc-linux-gnu"

%struct.prov_drbg_st = type { ptr, ptr, ptr, ptr, ptr, ptr, ptr, ptr, ptr, ptr, ptr, ptr, ptr, ptr, i32, i16, i32, i64, i64, i64, i64, i64, i64, i64, i32, i32, i64, i64, i32, i32, i32, i64, i32, ptr, ptr, ptr, ptr, ptr, ptr }
%struct.rand_drbg_hash_st = type { %struct.PROV_DIGEST, ptr, i64, [111 x i8], [111 x i8], [111 x i8] }
%struct.PROV_DIGEST = type { ptr, ptr, ptr }

; Function Attrs: nounwind uwtable
define internal i32 @drbg_hash_verify_zeroization(ptr noundef %0) #0 {
  %2 = alloca i32, align 4
  %3 = alloca ptr, align 8
  %4 = alloca ptr, align 8
  %5 = alloca ptr, align 8
  %6 = alloca i32, align 4
  %7 = alloca i32, align 4
  %8 = alloca i64, align 8
  %9 = alloca i64, align 8
  %10 = alloca i64, align 8
  store ptr %0, ptr %3, align 8, !tbaa !3
  call void @llvm.lifetime.start.p0(i64 8, ptr %4) #4
  %11 = load ptr, ptr %3, align 8, !tbaa !3
  store ptr %11, ptr %4, align 8, !tbaa !9
  call void @llvm.lifetime.start.p0(i64 8, ptr %5) #4
  %12 = load ptr, ptr %4, align 8, !tbaa !9
  %13 = getelementptr inbounds nuw %struct.prov_drbg_st, ptr %12, i32 0, i32 33
  %14 = load ptr, ptr %13, align 8, !tbaa !11
  store ptr %14, ptr %5, align 8, !tbaa !17
  call void @llvm.lifetime.start.p0(i64 4, ptr %6) #4
  store i32 0, ptr %6, align 4, !tbaa !25
  %15 = load ptr, ptr %4, align 8, !tbaa !9
  %16 = getelementptr inbounds nuw %struct.prov_drbg_st, ptr %15, i32 0, i32 0
  %17 = load ptr, ptr %16, align 8, !tbaa !31
  %18 = icmp ne ptr %17, null
  br i1 %18, label %19, label %26

19:                                               ; preds = %1
  %20 = load ptr, ptr %4, align 8, !tbaa !9
  %21 = getelementptr inbounds nuw %struct.prov_drbg_st, ptr %20, i32 0, i32 0
  %22 = load ptr, ptr %21, align 8, !tbaa !31
  %23 = call i32 @CRYPTO_THREAD_read_lock(ptr noundef %22)
  %24 = icmp ne i32 %23, 0
  br i1 %24, label %26, label %25

25:                                               ; preds = %19
  store i32 0, ptr %2, align 4
  store i32 1, ptr %7, align 4
  br label %99

26:                                               ; preds = %19, %1
  call void @llvm.lifetime.start.p0(i64 8, ptr %8) #4
  store i64 0, ptr %8, align 8, !tbaa !28
  br label %27

27:                                               ; preds = %40, %26
  %28 = load i64, ptr %8, align 8, !tbaa !28
  %29 = icmp ult i64 %28, 111
  br i1 %29, label %30, label %43

30:                                               ; preds = %27
  %31 = load ptr, ptr %5, align 8, !tbaa !17
  %32 = getelementptr inbounds nuw %struct.rand_drbg_hash_st, ptr %31, i32 0, i32 3
  %33 = load i64, ptr %8, align 8, !tbaa !28
  %34 = getelementptr inbounds nuw [111 x i8], ptr %32, i64 0, i64 %33
  %35 = load i8, ptr %34, align 1, !tbaa !33
  %36 = zext i8 %35 to i32
  %37 = icmp ne i32 %36, 0
  br i1 %37, label %38, label %39

38:                                               ; preds = %30
  store i32 5, ptr %7, align 4
  br label %44

39:                                               ; preds = %30
  br label %40

40:                                               ; preds = %39
  %41 = load i64, ptr %8, align 8, !tbaa !28
  %42 = add i64 %41, 1
  store i64 %42, ptr %8, align 8, !tbaa !28
  br label %27, !llvm.loop !34

43:                                               ; preds = %27
  store i32 0, ptr %7, align 4
  br label %44

44:                                               ; preds = %38, %43
  call void @llvm.lifetime.end.p0(i64 8, ptr %8) #4
  %45 = load i32, ptr %7, align 4
  switch i32 %45, label %99 [
    i32 0, label %46
    i32 5, label %87
  ]

46:                                               ; preds = %44
  call void @llvm.lifetime.start.p0(i64 8, ptr %9) #4
  store i64 0, ptr %9, align 8, !tbaa !28
  br label %47

47:                                               ; preds = %60, %46
  %48 = load i64, ptr %9, align 8, !tbaa !28
  %49 = icmp ult i64 %48, 111
  br i1 %49, label %50, label %63

50:                                               ; preds = %47
  %51 = load ptr, ptr %5, align 8, !tbaa !17
  %52 = getelementptr inbounds nuw %struct.rand_drbg_hash_st, ptr %51, i32 0, i32 4
  %53 = load i64, ptr %9, align 8, !tbaa !28
  %54 = getelementptr inbounds nuw [111 x i8], ptr %52, i64 0, i64 %53
  %55 = load i8, ptr %54, align 1, !tbaa !33
  %56 = zext i8 %55 to i32
  %57 = icmp ne i32 %56, 0
  br i1 %57, label %58, label %59

58:                                               ; preds = %50
  store i32 5, ptr %7, align 4
  br label %64

59:                                               ; preds = %50
  br label %60

60:                                               ; preds = %59
  %61 = load i64, ptr %9, align 8, !tbaa !28
  %62 = add i64 %61, 1
  store i64 %62, ptr %9, align 8, !tbaa !28
  br label %47, !llvm.loop !36

63:                                               ; preds = %47
  store i32 0, ptr %7, align 4
  br label %64

64:                                               ; preds = %58, %63
  call void @llvm.lifetime.end.p0(i64 8, ptr %9) #4
  %65 = load i32, ptr %7, align 4
  switch i32 %65, label %99 [
    i32 0, label %66
    i32 5, label %87
  ]

66:                                               ; preds = %64
  call void @llvm.lifetime.start.p0(i64 8, ptr %10) #4
  store i64 0, ptr %10, align 8, !tbaa !28
  br label %67

67:                                               ; preds = %80, %66
  %68 = load i64, ptr %10, align 8, !tbaa !28
  %69 = icmp ult i64 %68, 111
  br i1 %69, label %70, label %83

70:                                               ; preds = %67
  %71 = load ptr, ptr %5, align 8, !tbaa !17
  %72 = getelementptr inbounds nuw %struct.rand_drbg_hash_st, ptr %71, i32 0, i32 5
  %73 = load i64, ptr %10, align 8, !tbaa !28
  %74 = getelementptr inbounds nuw [111 x i8], ptr %72, i64 0, i64 %73
  %75 = load i8, ptr %74, align 1, !tbaa !33
  %76 = zext i8 %75 to i32
  %77 = icmp ne i32 %76, 0
  br i1 %77, label %78, label %79

78:                                               ; preds = %70
  store i32 5, ptr %7, align 4
  br label %84

79:                                               ; preds = %70
  br label %80

80:                                               ; preds = %79
  %81 = load i64, ptr %10, align 8, !tbaa !28
  %82 = add i64 %81, 1
  store i64 %82, ptr %10, align 8, !tbaa !28
  br label %67, !llvm.loop !37

83:                                               ; preds = %67
  store i32 0, ptr %7, align 4
  br label %84

84:                                               ; preds = %78, %83
  call void @llvm.lifetime.end.p0(i64 8, ptr %10) #4
  %85 = load i32, ptr %7, align 4
  switch i32 %85, label %99 [
    i32 0, label %86
    i32 5, label %87
  ]

86:                                               ; preds = %84
  store i32 1, ptr %6, align 4, !tbaa !25
  br label %87

87:                                               ; preds = %86, %84, %64, %44
  %88 = load ptr, ptr %4, align 8, !tbaa !9
  %89 = getelementptr inbounds nuw %struct.prov_drbg_st, ptr %88, i32 0, i32 0
  %90 = load ptr, ptr %89, align 8, !tbaa !31
  %91 = icmp ne ptr %90, null
  br i1 %91, label %92, label %97

92:                                               ; preds = %87
  %93 = load ptr, ptr %4, align 8, !tbaa !9
  %94 = getelementptr inbounds nuw %struct.prov_drbg_st, ptr %93, i32 0, i32 0
  %95 = load ptr, ptr %94, align 8, !tbaa !31
  %96 = call i32 @CRYPTO_THREAD_unlock(ptr noundef %95)
  br label %97

97:                                               ; preds = %92, %87
  %98 = load i32, ptr %6, align 4, !tbaa !25
  store i32 %98, ptr %2, align 4
  store i32 1, ptr %7, align 4
  br label %99

99:                                               ; preds = %97, %84, %64, %44, %25
  call void @llvm.lifetime.end.p0(i64 4, ptr %6) #4
  call void @llvm.lifetime.end.p0(i64 8, ptr %5) #4
  call void @llvm.lifetime.end.p0(i64 8, ptr %4) #4
  %100 = load i32, ptr %2, align 4
  ret i32 %100
}