; Function Attrs: nounwind uwtable
define internal range(i32 0, 2) i32 @drbg_hash_verify_zeroization(ptr noundef readonly captures(none) %0) #0 {
  %2 = getelementptr inbounds nuw i8, ptr %0, i64 240
  %3 = load ptr, ptr %2, align 8, !tbaa !3
  %4 = load ptr, ptr %0, align 8, !tbaa !18
  %.not = icmp eq ptr %4, null
  br i1 %.not, label %7, label %5

5:                                                ; preds = %1
  %6 = tail call i32 @CRYPTO_THREAD_read_lock(ptr noundef nonnull %4) #6
  %.not29 = icmp eq i32 %6, 0
  br i1 %.not29, label %29, label %7

7:                                                ; preds = %5, %1
  %8 = getelementptr inbounds nuw i8, ptr %3, i64 40
  br label %12

9:                                                ; preds = %12
  %10 = add nuw nsw i64 %.02342, 1
  %exitcond.not = icmp eq i64 %10, 111
  br i1 %exitcond.not, label %.preheader39, label %12, !llvm.loop !20

.preheader39:                                     ; preds = %9
  %11 = getelementptr inbounds nuw i8, ptr %3, i64 151
  br label %18

12:                                               ; preds = %7, %9
  %.02342 = phi i64 [ 0, %7 ], [ %10, %9 ]
  %13 = getelementptr inbounds nuw [111 x i8], ptr %8, i64 0, i64 %.02342
  %14 = load i8, ptr %13, align 1, !tbaa !22
  %.not30 = icmp eq i8 %14, 0
  br i1 %.not30, label %9, label %.thread

15:                                               ; preds = %18
  %16 = add nuw nsw i64 %.02243, 1
  %exitcond47.not = icmp eq i64 %16, 111
  br i1 %exitcond47.not, label %.preheader, label %18, !llvm.loop !23

.preheader:                                       ; preds = %15
  %17 = getelementptr inbounds nuw i8, ptr %3, i64 262
  br label %23

18:                                               ; preds = %.preheader39, %15
  %.02243 = phi i64 [ 0, %.preheader39 ], [ %16, %15 ]
  %19 = getelementptr inbounds nuw [111 x i8], ptr %11, i64 0, i64 %.02243
  %20 = load i8, ptr %19, align 1, !tbaa !22
  %.not31 = icmp eq i8 %20, 0
  br i1 %.not31, label %15, label %.thread

21:                                               ; preds = %23
  %22 = add nuw nsw i64 %.044, 1
  %exitcond48.not = icmp eq i64 %22, 111
  br i1 %exitcond48.not, label %.thread, label %23, !llvm.loop !24

23:                                               ; preds = %.preheader, %21
  %.044 = phi i64 [ 0, %.preheader ], [ %22, %21 ]
  %24 = getelementptr inbounds nuw [111 x i8], ptr %17, i64 0, i64 %.044
  %25 = load i8, ptr %24, align 1, !tbaa !22
  %.not32 = icmp eq i8 %25, 0
  br i1 %.not32, label %21, label %.thread

.thread:                                          ; preds = %12, %18, %21, %23
  %.025 = phi i32 [ 1, %21 ], [ 0, %23 ], [ 0, %18 ], [ 0, %12 ]
  %26 = load ptr, ptr %0, align 8, !tbaa !18
  %.not33 = icmp eq ptr %26, null
  br i1 %.not33, label %29, label %27

27:                                               ; preds = %.thread
  %28 = tail call i32 @CRYPTO_THREAD_unlock(ptr noundef nonnull %26) #6
  br label %29

29:                                               ; preds = %.thread, %27, %5
  %.026 = phi i32 [ 0, %5 ], [ %.025, %27 ], [ %.025, %.thread ]
  ret i32 %.026
}